	.file	"dgramTransmit.c"
	.text
.Ltext0:
	.section	.rodata
.LC0:
	.string	"rb"
.LC1:
	.string	"data.bin"
.LC2:
	.string	"Unable to open file %s"
.LC3:
	.string	"fileLen (bytes): %d\n"
.LC4:
	.string	"The data read from %s: "
.LC5:
	.string	"0x%02x "
.LC6:
	.string	"Opening datagram socket error"
	.align 8
.LC7:
	.string	"Opening the datagram socket...OK."
.LC8:
	.string	"226.1.1.1"
	.align 8
.LC9:
	.string	"Multicast Address (big endian): %08x\n"
.LC10:
	.string	"Multicast Address: %s\n"
.LC11:
	.string	"Multicast Port: %08x\n"
.LC12:
	.string	"Multicast Port: %d \n"
.LC13:
	.string	"192.168.40.180"
.LC14:
	.string	"Tx NIC (big endian): %08x\n"
.LC15:
	.string	"Tx NIC: %s\n"
.LC16:
	.string	"Setting local interface error"
	.align 8
.LC17:
	.string	"Setting the local interface...OK"
	.align 8
.LC18:
	.string	"Sending datagram message error"
.LC19:
	.string	"Sending datagram message...OK"
	.text
.globl main
	.type	main, @function
main:
.LFB0:
	.file 1 "dgramTransmit.c"
	.loc 1 24 0
	.cfi_startproc
	pushq	%rbp
	.cfi_def_cfa_offset 16
	.cfi_offset 6, -16
	movq	%rsp, %rbp
	.cfi_def_cfa_register 6
	pushq	%r12
	pushq	%rbx
	subq	$96, %rsp
	movl	%edi, -100(%rbp)
	movq	%rsi, -112(%rbp)
	.loc 1 24 0
	movq	%rsp, %rax
	movq	%rax, %r12
	.cfi_offset 3, -32
	.cfi_offset 12, -24
	.loc 1 28 0
	movq	$0, -48(%rbp)
	.loc 1 30 0
	movl	$.LC0, %edx
	movl	$.LC1, %eax
	movq	%rdx, %rsi
	movq	%rax, %rdi
	call	fopen
	movq	%rax, -48(%rbp)
	cmpq	$0, -48(%rbp)
	jne	.L2
	movl	$.LC2, %ecx
	movq	stderr(%rip), %rax
	movl	$.LC1, %edx
	movq	%rcx, %rsi
	movq	%rax, %rdi
	movl	$0, %eax
	call	fprintf
	movl	$1, %eax
	jmp	.L3
.L2:
	.loc 1 31 0
	movq	-48(%rbp), %rax
	movl	$2, %edx
	movl	$0, %esi
	movq	%rax, %rdi
	call	fseek
	.loc 1 32 0
	movq	-48(%rbp), %rax
	movq	%rax, %rdi
	call	ftell
	movq	%rax, -40(%rbp)
	.loc 1 35 0
	movl	$.LC3, %eax
	movq	-40(%rbp), %rdx
	movq	%rdx, %rsi
	movq	%rax, %rdi
	movl	$0, %eax
	call	printf
	.loc 1 38 0
	movq	-48(%rbp), %rax
	movl	$0, %edx
	movl	$0, %esi
	movq	%rax, %rdi
	call	fseek
	.loc 1 39 0
	movq	-40(%rbp), %rax
	movq	%rax, %rdx
	subq	$1, %rdx
	movq	%rdx, -64(%rbp)
	addq	$15, %rax
	addq	$15, %rax
	shrq	$4, %rax
	salq	$4, %rax
	subq	%rax, %rsp
	movq	%rsp, %rax
	addq	$15, %rax
	shrq	$4, %rax
	salq	$4, %rax
	movq	%rax, -56(%rbp)
	.loc 1 41 0
	movq	-56(%rbp), %rax
	movq	-48(%rbp), %rdx
	movq	-40(%rbp), %rbx
	movq	%rdx, %rcx
	movl	$1, %edx
	movq	%rbx, %rsi
	movq	%rax, %rdi
	call	fread
	.loc 1 44 0
	movq	-56(%rbp), %rax
	movq	%rax, -32(%rbp)
	.loc 1 45 0
	movl	$.LC4, %eax
	movl	$.LC1, %esi
	movq	%rax, %rdi
	movl	$0, %eax
	call	printf
	.loc 1 46 0
	movl	$0, -24(%rbp)
	jmp	.L4
.L5:
	movl	-24(%rbp), %eax
	cltq
	addq	-32(%rbp), %rax
	movzbl	(%rax), %eax
	movzbl	%al, %edx
	movl	$.LC5, %eax
	movl	%edx, %esi
	movq	%rax, %rdi
	movl	$0, %eax
	call	printf
	addl	$1, -24(%rbp)
.L4:
	movl	-24(%rbp), %eax
	cltq
	cmpq	-40(%rbp), %rax
	jb	.L5
	.loc 1 47 0
	movl	$10, %edi
	call	putchar
	.loc 1 50 0
	movq	-48(%rbp), %rax
	movq	%rax, %rdi
	call	fclose
	.loc 1 58 0
	movl	$0, %edx
	movl	$2, %esi
	movl	$2, %edi
	call	socket
	movl	%eax, -20(%rbp)
	.loc 1 59 0
	cmpl	$0, -20(%rbp)
	jns	.L6
	movl	$.LC6, %edi
	call	perror
	movl	$1, %edi
	call	exit
.L6:
	.loc 1 60 0
	movl	$.LC7, %edi
	call	puts
	.loc 1 65 0
	leaq	-80(%rbp), %rax
	movl	$16, %edx
	movl	$0, %esi
	movq	%rax, %rdi
	call	memset
	.loc 1 66 0
	movw	$2, -80(%rbp)
	.loc 1 67 0
	movl	$.LC8, %edi
	call	inet_addr
	movl	%eax, -76(%rbp)
	.loc 1 68 0
	movl	$4321, %edi
	call	htons
	movw	%ax, -78(%rbp)
	.loc 1 70 0
	movl	-76(%rbp), %edx
	movl	$.LC9, %eax
	movl	%edx, %esi
	movq	%rax, %rdi
	movl	$0, %eax
	call	printf
	.loc 1 71 0
	movl	-76(%rbp), %eax
	movl	%eax, %edi
	call	inet_ntoa
	movq	%rax, %rdx
	movl	$.LC10, %eax
	movq	%rdx, %rsi
	movq	%rax, %rdi
	movl	$0, %eax
	call	printf
	.loc 1 72 0
	movzwl	-78(%rbp), %eax
	movzwl	%ax, %eax
	movl	%eax, %edi
	call	ntohs
	movzwl	%ax, %edx
	movl	$.LC11, %eax
	movl	%edx, %esi
	movq	%rax, %rdi
	movl	$0, %eax
	call	printf
	.loc 1 73 0
	movzwl	-78(%rbp), %eax
	movzwl	%ax, %eax
	movl	%eax, %edi
	call	ntohs
	movzwl	%ax, %edx
	movl	$.LC12, %eax
	movl	%edx, %esi
	movq	%rax, %rdi
	movl	$0, %eax
	call	printf
	.loc 1 80 0
	movl	$.LC13, %edi
	call	inet_addr
	movl	%eax, -96(%rbp)
	.loc 1 81 0
	cmpl	$1, -100(%rbp)
	jle	.L7
	movq	-112(%rbp), %rax
	addq	$8, %rax
	movq	(%rax), %rax
	movq	%rax, %rdi
	call	inet_addr
	movl	%eax, -96(%rbp)
.L7:
	.loc 1 83 0
	movl	-96(%rbp), %edx
	movl	$.LC14, %eax
	movl	%edx, %esi
	movq	%rax, %rdi
	movl	$0, %eax
	call	printf
	.loc 1 84 0
	movl	-96(%rbp), %eax
	movl	%eax, %edi
	call	inet_ntoa
	movq	%rax, %rdx
	movl	$.LC15, %eax
	movq	%rdx, %rsi
	movq	%rax, %rdi
	movl	$0, %eax
	call	printf
	.loc 1 86 0
	leaq	-96(%rbp), %rdx
	movl	-20(%rbp), %eax
	movl	$4, %r8d
	movq	%rdx, %rcx
	movl	$32, %edx
	movl	$0, %esi
	movl	%eax, %edi
	call	setsockopt
	testl	%eax, %eax
	jns	.L8
	.loc 1 87 0
	movl	$.LC16, %edi
	call	perror
	movl	$1, %edi
	call	exit
.L8:
	.loc 1 88 0
	movl	$.LC17, %edi
	call	puts
	.loc 1 91 0
	leaq	-80(%rbp), %rdx
	movl	$0, %eax
	movq	%rdx, %rax
	movq	-56(%rbp), %rsi
	movq	-40(%rbp), %rdx
	movl	-20(%rbp), %ebx
	movl	$16, %r9d
	movq	%rax, %r8
	movl	$0, %ecx
	movl	%ebx, %edi
	call	sendto
	testq	%rax, %rax
	jns	.L9
	.loc 1 92 0
	movl	$.LC18, %edi
	call	perror
	jmp	.L10
.L9:
	.loc 1 93 0
	movl	$.LC19, %edi
	call	puts
.L10:
	.loc 1 95 0
	movl	$0, %eax
.L3:
	movq	%r12, %rsp
	.loc 1 96 0
	leaq	-16(%rbp), %rsp
	addq	$0, %rsp
	popq	%rbx
	popq	%r12
	leave
	.cfi_def_cfa 7, 8
	ret
	.cfi_endproc
.LFE0:
	.size	main, .-main
.Letext0:
	.file 2 "/usr/include/bits/types.h"
	.file 3 "/usr/lib/gcc/x86_64-redhat-linux/4.4.7/include/stddef.h"
	.file 4 "/usr/include/bits/sockaddr.h"
	.file 5 "/usr/include/bits/socket.h"
	.file 6 "/usr/include/netinet/in.h"
	.file 7 "/usr/include/stdint.h"
	.file 8 "/usr/include/stdio.h"
	.file 9 "/usr/include/libio.h"
	.file 10 "<built-in>"
	.section	.note.GNU-stack,"",@progbits
